target datalayout = "e-m:e-p270:32:32-p271:32:32-p272:64:64-i64:64-i128:128-f80:128-n8:16:32:64-S128"
target triple = "x86_64-pc-linux-gnu"

%class.params_ref = type { ptr }
%class.lackr = type <{ ptr, %class.params_ref, ptr, %class.array_util, %class.ref_vector, %class.obj_map, %class.obj_map.0, %class.ref, ptr, %class.ackr_helper, %class.th_rewriter, %class.ref_vector, %class.ref.5, i8, [7 x i8], %class.obj_mark, %class.ast_mark, ptr, i8, [7 x i8] }>
%class.array_util = type { %class.array_recognizers, ptr }
%class.array_recognizers = type { i32 }
%class.obj_map = type { %class.core_hashtable }
%class.core_hashtable = type <{ ptr, i32, i32, i32, [4 x i8] }>
%class.obj_map.0 = type { %class.core_hashtable.1 }
%class.core_hashtable.1 = type <{ ptr, i32, i32, i32, [4 x i8] }>
%class.ref = type { ptr }
%class.ackr_helper = type { %class.bv_util, %class.array_util }
%class.bv_util = type { %class.bv_recognizers, ptr, ptr }
%class.bv_recognizers = type { i32 }
%class.th_rewriter = type { ptr, %class.params_ref }
%class.ref_vector = type { %class.ref_vector_core }
%class.ref_vector_core = type { %class.ref_manager_wrapper, %class.ptr_vector }
%class.ref_manager_wrapper = type { ptr }
%class.ptr_vector = type { %class.vector }
%class.vector = type { ptr }
%class.ref.5 = type { ptr }
%class.obj_mark = type { [8 x i8], %class.bit_vector }
%class.bit_vector = type { i32, i32, ptr }
%class.ast_mark = type { ptr, %class.obj_mark, %class.obj_mark.6 }
%class.obj_mark.6 = type { [8 x i8], %class.bit_vector }
%class.check_sat_result = type { ptr, ptr, %class.ref_vector, %class.obj_ref, i32, i32, %class.ref.40, double }
%class.obj_ref = type { ptr, ptr }
%class.ref.40 = type { ptr }

; Function Attrs: mustprogress nounwind uwtable
define linkonce_odr hidden noundef ptr @_ZNK3refI15model_converterE3getEv(ptr noundef nonnull align 8 dereferenceable(8) %0) #5 comdat align 2 {
  %2 = alloca ptr, align 8
  store ptr %0, ptr %2, align 8, !tbaa !315
  %3 = load ptr, ptr %2, align 8
  %4 = getelementptr inbounds nuw %class.ref.40, ptr %3, i32 0, i32 0
  %5 = load ptr, ptr %4, align 8, !tbaa !317
  ret ptr %5
}

; Function Attrs: mustprogress uwtable
define linkonce_odr hidden noundef ptr @_ZNK16check_sat_result3mc0Ev(ptr noundef nonnull align 8 dereferenceable(72) %0) #4 comdat align 2 {
  %2 = alloca ptr, align 8
  store ptr %0, ptr %2, align 8, !tbaa !122
  %3 = load ptr, ptr %2, align 8
  %4 = getelementptr inbounds nuw %class.check_sat_result, ptr %3, i32 0, i32 6
  %5 = call noundef ptr @_ZNK3refI15model_converterE3getEv(ptr noundef nonnull align 8 dereferenceable(8) %4)
  ret ptr %5
}

; Function Attrs: mustprogress nounwind uwtable
define linkonce_odr hidden noundef zeroext i1 @_ZNK3refI5modelEcvbEv(ptr noundef nonnull align 8 dereferenceable(8) %0) #5 comdat align 2 {
  %2 = alloca ptr, align 8
  store ptr %0, ptr %2, align 8, !tbaa !69
  %3 = load ptr, ptr %2, align 8
  %4 = getelementptr inbounds nuw %class.ref.5, ptr %3, i32 0, i32 0
  %5 = load ptr, ptr %4, align 8, !tbaa !71
  %6 = icmp ne ptr %5, null
  ret i1 %6
}

; Function Attrs: mustprogress uwtable
define linkonce_odr hidden void @_ZN16check_sat_result9get_modelER3refI5modelE(ptr noundef nonnull align 8 dereferenceable(72) %0, ptr noundef nonnull align 8 dereferenceable(8) %1) #4 comdat align 2 {
  %3 = alloca ptr, align 8
  %4 = alloca ptr, align 8
  store ptr %0, ptr %3, align 8, !tbaa !122
  store ptr %1, ptr %4, align 8, !tbaa !69
  %5 = load ptr, ptr %3, align 8
  %6 = load ptr, ptr %4, align 8, !tbaa !69
  %7 = load ptr, ptr %5, align 8, !tbaa !78
  %8 = getelementptr inbounds ptr, ptr %7, i64 4
  %9 = load ptr, ptr %8, align 8
  call void %9(ptr noundef nonnull align 8 dereferenceable(72) %5, ptr noundef nonnull align 8 dereferenceable(8) %6)
  %10 = load ptr, ptr %4, align 8, !tbaa !69
  %11 = call noundef zeroext i1 @_ZNK3refI5modelEcvbEv(ptr noundef nonnull align 8 dereferenceable(8) %10)
  br i1 %11, label %12, label %21

12:                                               ; preds = %2
  %13 = call noundef ptr @_ZNK16check_sat_result3mc0Ev(ptr noundef nonnull align 8 dereferenceable(72) %5)
  %14 = icmp ne ptr %13, null
  br i1 %14, label %15, label %21

15:                                               ; preds = %12
  %16 = call noundef ptr @_ZNK16check_sat_result3mc0Ev(ptr noundef nonnull align 8 dereferenceable(72) %5)
  %17 = load ptr, ptr %4, align 8, !tbaa !69
  %18 = load ptr, ptr %16, align 8, !tbaa !78
  %19 = getelementptr inbounds ptr, ptr %18, i64 4
  %20 = load ptr, ptr %19, align 8
  call void %20(ptr noundef nonnull align 8 dereferenceable(25) %16, ptr noundef nonnull align 8 dereferenceable(8) %17)
  br label %21

21:                                               ; preds = %15, %12, %2
  ret void
}

; Function Attrs: mustprogress uwtable
define hidden noundef i32 @_ZN5lackrclEv(ptr noundef nonnull align 8 dereferenceable(297) %0) #4 align 2 {
  %2 = alloca i32, align 4
  %3 = alloca ptr, align 8
  %4 = alloca i32, align 4
  store ptr %0, ptr %3, align 8, !tbaa !3
  %5 = load ptr, ptr %3, align 8
  %6 = call noundef zeroext i1 @_ZN5lackr4initEv(ptr noundef nonnull align 8 dereferenceable(297) %5)
  br i1 %6, label %8, label %7

7:                                                ; preds = %1
  store i32 0, ptr %2, align 4
  br label %26

8:                                                ; preds = %1
  call void @llvm.lifetime.start.p0(i64 4, ptr %4) #3
  %9 = getelementptr inbounds nuw %class.lackr, ptr %5, i32 0, i32 13
  %10 = load i8, ptr %9, align 8, !tbaa !80, !range !101, !noundef !102
  %11 = trunc i8 %10 to i1
  br i1 %11, label %12, label %14

12:                                               ; preds = %8
  %13 = call noundef i32 @_ZN5lackr5eagerEv(ptr noundef nonnull align 8 dereferenceable(297) %5)
  br label %16

14:                                               ; preds = %8
  %15 = call noundef i32 @_ZN5lackr4lazyEv(ptr noundef nonnull align 8 dereferenceable(297) %5)
  br label %16

16:                                               ; preds = %14, %12
  %17 = phi i32 [ %13, %12 ], [ %15, %14 ]
  store i32 %17, ptr %4, align 4, !tbaa !103
  %18 = load i32, ptr %4, align 4, !tbaa !103
  %19 = icmp eq i32 %18, 1
  br i1 %19, label %20, label %24

20:                                               ; preds = %16
  %21 = getelementptr inbounds nuw %class.lackr, ptr %5, i32 0, i32 8
  %22 = load ptr, ptr %21, align 8, !tbaa !18
  %23 = getelementptr inbounds nuw %class.lackr, ptr %5, i32 0, i32 12
  call void @_ZN16check_sat_result9get_modelER3refI5modelE(ptr noundef nonnull align 8 dereferenceable(72) %22, ptr noundef nonnull align 8 dereferenceable(8) %23)
  br label %24

24:                                               ; preds = %20, %16
  %25 = load i32, ptr %4, align 4, !tbaa !103
  store i32 %25, ptr %2, align 4
  call void @llvm.lifetime.end.p0(i64 4, ptr %4) #3
  br label %26

26:                                               ; preds = %24, %7
  %27 = load i32, ptr %2, align 4
  ret i32 %27
}