; Function Attrs: mustprogress uwtable
define hidden noundef i32 @_ZN5lackrclEv(ptr noundef nonnull align 8 dereferenceable(297) %0) local_unnamed_addr #3 align 2 {
  %2 = tail call noundef zeroext i1 @_ZN5lackr4initEv(ptr noundef nonnull align 8 dereferenceable(297) %0)
  br i1 %2, label %3, label %_ZN16check_sat_result9get_modelER3refI5modelE.exit

3:                                                ; preds = %1
  %4 = getelementptr inbounds nuw i8, ptr %0, i64 200
  %5 = load i8, ptr %4, align 8, !tbaa !69, !range !124, !noundef !125
  %6 = trunc nuw i8 %5 to i1
  br i1 %6, label %7, label %9

7:                                                ; preds = %3
  %8 = tail call noundef i32 @_ZN5lackr5eagerEv(ptr noundef nonnull align 8 dereferenceable(297) %0)
  br label %11

9:                                                ; preds = %3
  %10 = tail call noundef i32 @_ZN5lackr4lazyEv(ptr noundef nonnull align 8 dereferenceable(297) %0)
  br label %11

11:                                               ; preds = %9, %7
  %12 = phi i32 [ %8, %7 ], [ %10, %9 ]
  %13 = icmp eq i32 %12, 1
  br i1 %13, label %14, label %_ZN16check_sat_result9get_modelER3refI5modelE.exit

14:                                               ; preds = %11
  %15 = getelementptr inbounds nuw i8, ptr %0, i64 112
  %16 = load ptr, ptr %15, align 8, !tbaa !30
  %17 = getelementptr inbounds nuw i8, ptr %0, i64 192
  %18 = load ptr, ptr %16, align 8, !tbaa !61
  %19 = getelementptr inbounds nuw i8, ptr %18, i64 32
  %20 = load ptr, ptr %19, align 8
  tail call void %20(ptr noundef nonnull align 8 dereferenceable(72) %16, ptr noundef nonnull align 8 dereferenceable(8) %17)
  %21 = load ptr, ptr %17, align 8, !tbaa !71
  %.not4.i = icmp eq ptr %21, null
  br i1 %.not4.i, label %_ZN16check_sat_result9get_modelER3refI5modelE.exit, label %22

22:                                               ; preds = %14
  %23 = getelementptr inbounds nuw i8, ptr %16, i64 56
  %24 = load ptr, ptr %23, align 8, !tbaa !126
  %.not.i = icmp eq ptr %24, null
  br i1 %.not.i, label %_ZN16check_sat_result9get_modelER3refI5modelE.exit, label %25

25:                                               ; preds = %22
  %26 = load ptr, ptr %24, align 8, !tbaa !61
  %27 = getelementptr inbounds nuw i8, ptr %26, i64 32
  %28 = load ptr, ptr %27, align 8
  tail call void %28(ptr noundef nonnull align 8 dereferenceable(25) %24, ptr noundef nonnull align 8 dereferenceable(8) %17)
  br label %_ZN16check_sat_result9get_modelER3refI5modelE.exit

_ZN16check_sat_result9get_modelER3refI5modelE.exit: ; preds = %25, %22, %14, %11, %1
  %.0 = phi i32 [ 0, %1 ], [ %12, %11 ], [ 1, %14 ], [ 1, %22 ], [ 1, %25 ]
  ret i32 %.0
}